; Function Attrs: nounwind uwtable
define dso_local void @zrangestoreCommand(ptr noundef %0) local_unnamed_addr #0 {
  %2 = alloca %struct.zrange_result_handler, align 8
  %3 = getelementptr inbounds nuw i8, ptr %0, i64 96
  %4 = load ptr, ptr %3, align 8, !tbaa !136
  %5 = getelementptr inbounds nuw i8, ptr %4, i64 8
  %6 = load ptr, ptr %5, align 8, !tbaa !146
  call void @llvm.lifetime.start.p0(i64 80, ptr nonnull %2) #18
  call void @llvm.memset.p0.i64(ptr noundef nonnull align 8 dereferenceable(80) %2, i8 0, i64 48, i1 false)
  %7 = getelementptr inbounds nuw i8, ptr %2, i64 8
  store ptr %0, ptr %7, align 8, !tbaa !194
  %8 = getelementptr inbounds nuw i8, ptr %2, i64 48
  store ptr @zrangeResultBeginStore, ptr %8, align 8, !tbaa !196
  %9 = getelementptr inbounds nuw i8, ptr %2, i64 56
  store ptr @zrangeResultFinalizeStore, ptr %9, align 8, !tbaa !197
  %10 = getelementptr inbounds nuw i8, ptr %2, i64 64
  store ptr @zrangeResultEmitCBufferForStore, ptr %10, align 8, !tbaa !199
  %11 = getelementptr inbounds nuw i8, ptr %2, i64 72
  store ptr @zrangeResultEmitLongLongForStore, ptr %11, align 8, !tbaa !198
  %12 = getelementptr inbounds nuw i8, ptr %2, i64 16
  store ptr %6, ptr %12, align 8, !tbaa !202
  call void @zrangeGenericCommand(ptr noundef nonnull %2, i32 noundef 2, i32 noundef 1, i32 noundef 0, i32 noundef 0)
  call void @llvm.lifetime.end.p0(i64 80, ptr nonnull %2) #18
  ret void
}